; Function Attrs: nounwind uwtable
define noalias nonnull ptr @l_Lean_mkProjectionInfoEx___boxed(ptr noundef %0, ptr noundef %1, ptr noundef %2, ptr noundef %3) local_unnamed_addr #0 {
  %5 = ptrtoint ptr %3 to i64
  %6 = and i64 %5, 1
  %.not = icmp eq i64 %6, 0
  br i1 %.not, label %7, label %lean_dec.exit

7:                                                ; preds = %4
  %8 = load i32, ptr %3, align 4, !tbaa !8
  %9 = icmp sgt i32 %8, 1
  br i1 %9, label %10, label %12, !prof !11

10:                                               ; preds = %7
  %11 = add nsw i32 %8, -1
  store i32 %11, ptr %3, align 4, !tbaa !8
  br label %lean_dec.exit

12:                                               ; preds = %7
  %.not.i = icmp eq i32 %8, 0
  br i1 %.not.i, label %lean_dec.exit, label %13

13:                                               ; preds = %12
  tail call void @lean_dec_ref_cold(ptr noundef nonnull %3) #3
  br label %lean_dec.exit

lean_dec.exit:                                    ; preds = %13, %12, %10, %4
  tail call void @lean_inc_heartbeat() #3
  %14 = tail call noalias ptr @mi_malloc_small(i64 noundef 40) #3
  %15 = icmp eq ptr %14, null
  br i1 %15, label %16, label %lean_mk_projection_info.exit

16:                                               ; preds = %lean_dec.exit
  tail call void @lean_internal_panic_out_of_memory() #4
  unreachable

lean_mk_projection_info.exit:                     ; preds = %lean_dec.exit
  %17 = lshr i64 %5, 1
  %18 = trunc i64 %17 to i8
  %19 = getelementptr inbounds nuw i8, ptr %14, i64 4
  %20 = getelementptr inbounds nuw i8, ptr %14, i64 32
  store i64 0, ptr %20, align 8, !tbaa !12
  store i32 1, ptr %14, align 4, !tbaa !8
  store i32 196648, ptr %19, align 4
  %21 = getelementptr inbounds nuw i8, ptr %14, i64 8
  store ptr %0, ptr %21, align 8, !tbaa !4
  %22 = getelementptr inbounds nuw i8, ptr %14, i64 16
  store ptr %1, ptr %22, align 8, !tbaa !4
  %23 = getelementptr inbounds nuw i8, ptr %14, i64 24
  store ptr %2, ptr %23, align 8, !tbaa !4
  store i8 %18, ptr %20, align 1, !tbaa !14
  ret ptr %14
}